; ModuleID = 'bench/z3/original/trace.ll'
source_filename = "bench/z3/original/trace.ll"
target datalayout = "e-m:e-p270:32:32-p271:32:32-p272:64:64-i64:64-i128:128-f80:128-n8:16:32:64-S128"
target triple = "x86_64-pc-linux-gnu"

%"class.std::ios_base::Init" = type { i8 }
%union.pthread_mutex_t = type { %struct.__pthread_mutex_s }
%struct.__pthread_mutex_s = type { i32, i32, i32, i32, i32, i16, i16, %struct.__pthread_internal_list }
%struct.__pthread_internal_list = type { ptr, ptr }

@_ZStL8__ioinit = internal global %"class.std::ios_base::Init" zeroinitializer, align 1
@__dso_handle = external hidden global i8
@_ZL11g_thread_id.0 = internal unnamed_addr global i64 0, align 8
@_ZL13g_is_threaded = internal unnamed_addr global i8 0, align 1
@_ZL13g_verbose_mux = internal global { %union.pthread_mutex_t } zeroinitializer, align 8
@llvm.global_ctors = appending global [1 x { i32, ptr, ptr }] [{ i32, ptr, ptr } { i32 65535, ptr @_GLOBAL__sub_I_trace.cpp, ptr null }]

declare void @_ZNSt8ios_base4InitC1Ev(ptr noundef nonnull align 1 dereferenceable(1)) unnamed_addr #0

; Function Attrs: nounwind
declare void @_ZNSt8ios_base4InitD1Ev(ptr noundef nonnull align 1 dereferenceable(1)) unnamed_addr #1

; Function Attrs: nofree nounwind
declare i32 @__cxa_atexit(ptr, ptr, ptr) local_unnamed_addr #2

; Function Attrs: mustprogress uwtable
define hidden void @_Z12verbose_lockv() local_unnamed_addr #3 {
  %1 = tail call noundef i32 @pthread_mutex_lock(ptr noundef nonnull @_ZL13g_verbose_mux) #9
  %.not.i = icmp eq i32 %1, 0
  br i1 %.not.i, label %_ZNSt5mutex4lockEv.exit, label %2

2:                                                ; preds = %0
  tail call void @_ZSt20__throw_system_errori(i32 noundef %1) #10
  unreachable

_ZNSt5mutex4lockEv.exit:                          ; preds = %0
  ret void
}

; Function Attrs: mustprogress nounwind uwtable
define hidden void @_Z14verbose_unlockv() local_unnamed_addr #4 {
  %1 = tail call noundef i32 @pthread_mutex_unlock(ptr noundef nonnull @_ZL13g_verbose_mux) #9
  ret void
}

; Function Attrs: mustprogress nofree nosync nounwind willreturn memory(readwrite, argmem: none, inaccessiblemem: none) uwtable
define hidden noundef zeroext i1 @_Z11is_threadedv() local_unnamed_addr #5 personality ptr @__gxx_personality_v0 {
  %1 = load i8, ptr @_ZL13g_is_threaded, align 1, !tbaa !3, !range !7, !noundef !8
  %2 = trunc nuw i8 %1 to i1
  br i1 %2, label %7, label %3

3:                                                ; preds = %0
  %4 = tail call i64 @pthread_self() #11
  %.sroa.0.0.copyload = load i64, ptr @_ZL11g_thread_id.0, align 8, !tbaa !9
  %5 = icmp ne i64 %4, %.sroa.0.0.copyload
  %6 = zext i1 %5 to i8
  store i8 %6, ptr @_ZL13g_is_threaded, align 1, !tbaa !3
  br label %7

7:                                                ; preds = %0, %3
  %.0 = phi i1 [ %5, %3 ], [ true, %0 ]
  ret i1 %.0
}

; Function Attrs: noreturn
declare void @_ZSt20__throw_system_errori(i32 noundef) local_unnamed_addr #6

; Function Attrs: nounwind
declare i32 @pthread_mutex_lock(ptr noundef) local_unnamed_addr #1

; Function Attrs: nounwind
declare i32 @pthread_mutex_unlock(ptr noundef) local_unnamed_addr #1

; Function Attrs: mustprogress nofree nosync nounwind willreturn memory(none)
declare i64 @pthread_self() local_unnamed_addr #7

declare i32 @__gxx_personality_v0(...)

; Function Attrs: uwtable
define internal void @_GLOBAL__sub_I_trace.cpp() #8 section ".text.startup" personality ptr @__gxx_personality_v0 {
  tail call void @_ZNSt8ios_base4InitC1Ev(ptr noundef nonnull align 1 dereferenceable(1) @_ZStL8__ioinit)
  %1 = tail call i32 @__cxa_atexit(ptr nonnull @_ZNSt8ios_base4InitD1Ev, ptr nonnull @_ZStL8__ioinit, ptr nonnull @__dso_handle) #9
  %2 = tail call i64 @pthread_self() #11
  store i64 %2, ptr @_ZL11g_thread_id.0, align 8
  ret void
}


!llvm.linker.options = !{}
!llvm.module.flags = !{!0, !1, !2}

!0 = !{i32 1, !"wchar_size", i32 4}
!1 = !{i32 8, !"PIC Level", i32 2}
!2 = !{i32 7, !"uwtable", i32 2}
!3 = !{!4, !4, i64 0}
!4 = !{!"bool", !5, i64 0}
!5 = !{!"omnipotent char", !6, i64 0}
!6 = !{!"Simple C++ TBAA"}
!7 = !{i8 0, i8 2}
!8 = !{}
!9 = !{!10, !10, i64 0}
!10 = !{!"long", !5, i64 0}
